target datalayout = "e-m:e-p270:32:32-p271:32:32-p272:64:64-i64:64-i128:128-f80:128-n8:16:32:64-S128"
target triple = "x86_64-pc-linux-gnu"

%struct.gie_ctx = type { [10001 x i8], [10001 x i8], [10001 x i8], ptr, %union.PJ_COORD, %union.PJ_COORD, %union.PJ_COORD, i32, i32, i32, i32, i32, i32, i32, i32, i32, i32, i32, i32, i32, i64, i64, i64, double, i32, i32, i32, ptr, ptr }
%union.PJ_COORD = type { [4 x double] }

@_ZL1T = internal global %struct.gie_ctx zeroinitializer, align 8
@_ZL5delim = internal constant [81 x i8] c"-------------------------------------------------------------------------------\0A\00", align 16
@__const._ZL6bannerPKc.dots = private unnamed_addr constant [4 x i8] c"...\00", align 1
@.str.130 = private unnamed_addr constant [14 x i8] c"%s%-70.70s%s\0A\00", align 1

; Function Attrs: mustprogress nounwind uwtable
define internal noundef i32 @_ZL6bannerPKc(ptr noundef %0) #0 {
  %2 = alloca ptr, align 8
  %3 = alloca [4 x i8], align 1
  %4 = alloca [1 x i8], align 1
  %5 = alloca ptr, align 8
  store ptr %0, ptr %2, align 8
  call void @llvm.memcpy.p0.p0.i64(ptr align 1 %3, ptr align 1 @__const._ZL6bannerPKc.dots, i64 4, i1 false)
  call void @llvm.memset.p0.i64(ptr align 1 %4, i8 0, i64 1, i1 false)
  %6 = getelementptr inbounds [1 x i8], ptr %4, i64 0, i64 0
  store ptr %6, ptr %5, align 8
  %7 = load ptr, ptr %2, align 8
  %8 = call i64 @strlen(ptr noundef %7) #14
  %9 = icmp ugt i64 %8, 70
  br i1 %9, label %10, label %12

10:                                               ; preds = %1
  %11 = getelementptr inbounds [4 x i8], ptr %3, i64 0, i64 0
  store ptr %11, ptr %5, align 8
  br label %12

12:                                               ; preds = %10, %1
  %13 = load ptr, ptr getelementptr inbounds (%struct.gie_ctx, ptr @_ZL1T, i32 0, i32 28), align 8
  %14 = load ptr, ptr %2, align 8
  %15 = load ptr, ptr %5, align 8
  %16 = call i32 (ptr, ptr, ...) @fprintf(ptr noundef %13, ptr noundef @.str.130, ptr noundef @_ZL5delim, ptr noundef %14, ptr noundef %15) #13
  ret i32 0
}