; Function Attrs: mustprogress nofree norecurse nounwind uwtable
define internal fastcc void @_ZL6bannerPKc(ptr noundef %0) unnamed_addr #15 {
  %2 = alloca [4 x i8], align 4
  %3 = alloca [1 x i8], align 1
  store i32 3026478, ptr %2, align 4
  store i8 0, ptr %3, align 1
  %4 = tail call i64 @strlen(ptr noundef nonnull dereferenceable(1) %0) #27
  %5 = icmp ugt i64 %4, 70
  %spec.select = select i1 %5, ptr %2, ptr %3
  %6 = load ptr, ptr getelementptr inbounds (%struct.gie_ctx, ptr @_ZL1T, i64 0, i32 28), align 8
  %7 = call i32 (ptr, ptr, ...) @fprintf(ptr noundef %6, ptr noundef nonnull @.str.130, ptr noundef nonnull @_ZL5delim, ptr noundef %0, ptr noundef nonnull %spec.select) #26
  ret void
}